; Function Attrs: nounwind uwtable
define dso_local range(i64 0, 2) i64 @pg_is_other_temp_schema(ptr noundef readonly captures(none) %0) local_unnamed_addr #0 {
  %2 = getelementptr inbounds nuw i8, ptr %0, i64 32
  %3 = load i64, ptr %2, align 8
  %4 = trunc i64 %3 to i32
  %5 = load i32, ptr @myTempNamespace, align 4
  %.not.i.i = icmp eq i32 %5, 0
  br i1 %.not.i.i, label %isTempOrTempToastNamespace.exit.i, label %6

6:                                                ; preds = %1
  %7 = icmp eq i32 %5, %4
  %8 = load i32, ptr @myTempToastNamespace, align 4
  %9 = icmp eq i32 %8, %4
  %or.cond.i.i = select i1 %7, i1 true, i1 %9
  br i1 %or.cond.i.i, label %isOtherTempNamespace.exit, label %isTempOrTempToastNamespace.exit.i

isTempOrTempToastNamespace.exit.i:                ; preds = %6, %1
  %10 = tail call ptr @get_namespace_name(i32 noundef %4) #19
  %.not.i2.i = icmp eq ptr %10, null
  br i1 %.not.i2.i, label %isOtherTempNamespace.exit, label %11

11:                                               ; preds = %isTempOrTempToastNamespace.exit.i
  %12 = tail call i32 @strncmp(ptr noundef nonnull dereferenceable(1) %10, ptr noundef nonnull dereferenceable(9) @.str.25, i64 noundef 8) #20
  %13 = icmp eq i32 %12, 0
  br i1 %13, label %18, label %14

14:                                               ; preds = %11
  %15 = tail call i32 @strncmp(ptr noundef nonnull dereferenceable(1) %10, ptr noundef nonnull dereferenceable(15) @.str.26, i64 noundef 14) #20
  %16 = icmp eq i32 %15, 0
  %17 = zext i1 %16 to i64
  br label %18

18:                                               ; preds = %14, %11
  %19 = phi i64 [ 1, %11 ], [ %17, %14 ]
  tail call void @pfree(ptr noundef nonnull %10) #19
  br label %isOtherTempNamespace.exit

isOtherTempNamespace.exit:                        ; preds = %6, %isTempOrTempToastNamespace.exit.i, %18
  %.0.i = phi i64 [ %19, %18 ], [ 0, %isTempOrTempToastNamespace.exit.i ], [ 0, %6 ]
  ret i64 %.0.i
}